target datalayout = "e-m:e-p270:32:32-p271:32:32-p272:64:64-i64:64-i128:128-f80:128-n8:16:32:64-S128"
target triple = "x86_64-pc-linux-gnu"

%struct.expert_field = type { i32, i32 }
%struct.ieee80211_tagged_field_data = type { i32, ptr, i8, ptr, ptr }

@ei_ieee80211_tag_length = internal global %struct.expert_field zeroinitializer, align 4
@hf_ieee80211_ff_qos_info_ap = internal global i32 0, align 4
@hf_ieee80211_ff_qos_info_sta = internal global i32 0, align 4
@ett_ff_qos_info = internal global i32 0, align 4
@ei_ieee80211_qos_info_bad_ftype = internal global %struct.expert_field zeroinitializer, align 4
@.str.9966 = private unnamed_addr constant [57 x i8] c"Could not deduce direction to decode correctly, ftype %u\00", align 1
@.str.9970 = private unnamed_addr constant [33 x i8] c"Tag Length %u wrong, must be = 1\00", align 1

; Function Attrs: null_pointer_is_valid sspstrong uwtable
define internal i32 @add_ff_qos_info_ap(ptr noundef %0, ptr noundef %1, ptr noundef %2, i32 noundef %3) #1 {
  %5 = alloca ptr, align 8
  %6 = alloca ptr, align 8
  %7 = alloca ptr, align 8
  %8 = alloca i32, align 4
  store ptr %0, ptr %5, align 8
  store ptr %1, ptr %6, align 8
  store ptr %2, ptr %7, align 8
  store i32 %3, ptr %8, align 4
  %9 = load ptr, ptr %5, align 8
  %10 = load ptr, ptr %6, align 8
  %11 = load i32, ptr %8, align 4
  %12 = load i32, ptr @hf_ieee80211_ff_qos_info_ap, align 4
  %13 = load i32, ptr @ett_ff_qos_info, align 4
  %14 = call ptr @proto_tree_add_bitmask_with_flags(ptr noundef %9, ptr noundef %10, i32 noundef %11, i32 noundef %12, i32 noundef %13, ptr noundef @ieee80211_ff_qos_info_ap_fields, i32 noundef -2147483648, i32 noundef 1)
  ret i32 1
}

; Function Attrs: null_pointer_is_valid sspstrong uwtable
define internal i32 @add_ff_qos_info_sta(ptr noundef %0, ptr noundef %1, ptr noundef %2, i32 noundef %3) #1 {
  %5 = alloca ptr, align 8
  %6 = alloca ptr, align 8
  %7 = alloca ptr, align 8
  %8 = alloca i32, align 4
  store ptr %0, ptr %5, align 8
  store ptr %1, ptr %6, align 8
  store ptr %2, ptr %7, align 8
  store i32 %3, ptr %8, align 4
  %9 = load ptr, ptr %5, align 8
  %10 = load ptr, ptr %6, align 8
  %11 = load i32, ptr %8, align 4
  %12 = load i32, ptr @hf_ieee80211_ff_qos_info_sta, align 4
  %13 = load i32, ptr @ett_ff_qos_info, align 4
  %14 = call ptr @proto_tree_add_bitmask_with_flags(ptr noundef %9, ptr noundef %10, i32 noundef %11, i32 noundef %12, i32 noundef %13, ptr noundef @ieee80211_ff_qos_info_sta_fields, i32 noundef -2147483648, i32 noundef 1)
  ret i32 1
}

; Function Attrs: null_pointer_is_valid sspstrong uwtable
define internal i32 @dissect_qos_capability(ptr noundef %0, ptr noundef %1, ptr noundef %2, i32 noundef %3, i32 noundef %4) #1 {
  %6 = alloca ptr, align 8
  %7 = alloca ptr, align 8
  %8 = alloca ptr, align 8
  %9 = alloca i32, align 4
  %10 = alloca i32, align 4
  store ptr %0, ptr %6, align 8
  store ptr %1, ptr %7, align 8
  store ptr %2, ptr %8, align 8
  store i32 %3, ptr %9, align 4
  store i32 %4, ptr %10, align 4
  %11 = load i32, ptr %10, align 4
  switch i32 %11, label %28 [
    i32 0, label %12
    i32 4, label %12
    i32 2, label %12
    i32 8, label %20
    i32 5, label %20
    i32 1, label %20
    i32 3, label %20
  ]

12:                                               ; preds = %5, %5, %5
  %13 = load ptr, ptr %6, align 8
  %14 = load ptr, ptr %7, align 8
  %15 = load ptr, ptr %8, align 8
  %16 = load i32, ptr %9, align 4
  %17 = call i32 @add_ff_qos_info_sta(ptr noundef %13, ptr noundef %14, ptr noundef %15, i32 noundef %16)
  %18 = load i32, ptr %9, align 4
  %19 = add i32 %18, %17
  store i32 %19, ptr %9, align 4
  br label %34

20:                                               ; preds = %5, %5, %5, %5
  %21 = load ptr, ptr %6, align 8
  %22 = load ptr, ptr %7, align 8
  %23 = load ptr, ptr %8, align 8
  %24 = load i32, ptr %9, align 4
  %25 = call i32 @add_ff_qos_info_ap(ptr noundef %21, ptr noundef %22, ptr noundef %23, i32 noundef %24)
  %26 = load i32, ptr %9, align 4
  %27 = add i32 %26, %25
  store i32 %27, ptr %9, align 4
  br label %34

28:                                               ; preds = %5
  %29 = load ptr, ptr %8, align 8
  %30 = load ptr, ptr %6, align 8
  %31 = call ptr @proto_tree_get_parent(ptr noundef %30)
  %32 = load i32, ptr %10, align 4
  %33 = call ptr (ptr, ptr, ptr, ptr, ...) @expert_add_info_format(ptr noundef %29, ptr noundef %31, ptr noundef @ei_ieee80211_qos_info_bad_ftype, ptr noundef @.str.9966, i32 noundef %32)
  br label %34

34:                                               ; preds = %28, %20, %12
  %35 = load i32, ptr %9, align 4
  ret i32 %35
}

; Function Attrs: null_pointer_is_valid sspstrong uwtable
define internal i32 @ieee80211_tag_qos_capability(ptr noundef %0, ptr noundef %1, ptr noundef %2, ptr noundef %3) #1 {
  %5 = alloca i32, align 4
  %6 = alloca ptr, align 8
  %7 = alloca ptr, align 8
  %8 = alloca ptr, align 8
  %9 = alloca ptr, align 8
  %10 = alloca i32, align 4
  %11 = alloca ptr, align 8
  %12 = alloca i32, align 4
  %13 = alloca i32, align 4
  store ptr %0, ptr %6, align 8
  store ptr %1, ptr %7, align 8
  store ptr %2, ptr %8, align 8
  store ptr %3, ptr %9, align 8
  call void @llvm.lifetime.start.p0(i64 4, ptr %10) #19
  %14 = load ptr, ptr %6, align 8
  %15 = call i32 @tvb_reported_length(ptr noundef %14)
  store i32 %15, ptr %10, align 4
  call void @llvm.lifetime.start.p0(i64 8, ptr %11) #19
  %16 = load ptr, ptr %9, align 8
  store ptr %16, ptr %11, align 8
  call void @llvm.lifetime.start.p0(i64 4, ptr %12) #19
  store i32 0, ptr %12, align 4
  %17 = load i32, ptr %10, align 4
  %18 = icmp ne i32 %17, 1
  br i1 %18, label %19, label %28

19:                                               ; preds = %4
  %20 = load ptr, ptr %7, align 8
  %21 = load ptr, ptr %11, align 8
  %22 = getelementptr inbounds nuw %struct.ieee80211_tagged_field_data, ptr %21, i32 0, i32 4
  %23 = load ptr, ptr %22, align 8
  %24 = load i32, ptr %10, align 4
  %25 = call ptr (ptr, ptr, ptr, ptr, ...) @expert_add_info_format(ptr noundef %20, ptr noundef %23, ptr noundef @ei_ieee80211_tag_length, ptr noundef @.str.9970, i32 noundef %24)
  %26 = load ptr, ptr %6, align 8
  %27 = call i32 @tvb_captured_length(ptr noundef %26)
  store i32 %27, ptr %5, align 4
  store i32 1, ptr %13, align 4
  br label %39

28:                                               ; preds = %4
  %29 = load ptr, ptr %8, align 8
  %30 = load ptr, ptr %6, align 8
  %31 = load ptr, ptr %7, align 8
  %32 = load i32, ptr %12, align 4
  %33 = load ptr, ptr %11, align 8
  %34 = getelementptr inbounds nuw %struct.ieee80211_tagged_field_data, ptr %33, i32 0, i32 0
  %35 = load i32, ptr %34, align 8
  %36 = call i32 @dissect_qos_capability(ptr noundef %29, ptr noundef %30, ptr noundef %31, i32 noundef %32, i32 noundef %35)
  %37 = load ptr, ptr %6, align 8
  %38 = call i32 @tvb_captured_length(ptr noundef %37)
  store i32 %38, ptr %5, align 4
  store i32 1, ptr %13, align 4
  br label %39

39:                                               ; preds = %28, %19
  call void @llvm.lifetime.end.p0(i64 4, ptr %12) #19
  call void @llvm.lifetime.end.p0(i64 8, ptr %11) #19
  call void @llvm.lifetime.end.p0(i64 4, ptr %10) #19
  %40 = load i32, ptr %5, align 4
  ret i32 %40
}