; Function Attrs: null_pointer_is_valid sspstrong uwtable
define internal i32 @ieee80211_tag_qos_capability(ptr noundef %0, ptr noundef %1, ptr noundef %2, ptr noundef readonly captures(none) %3) #2 {
  %5 = tail call i32 @tvb_reported_length(ptr noundef %0)
  %.not = icmp eq i32 %5, 1
  br i1 %.not, label %10, label %6

6:                                                ; preds = %4
  %7 = getelementptr inbounds nuw i8, ptr %3, i64 32
  %8 = load ptr, ptr %7, align 8
  %9 = tail call ptr (ptr, ptr, ptr, ptr, ...) @expert_add_info_format(ptr noundef %1, ptr noundef %8, ptr noundef nonnull @ei_ieee80211_tag_length, ptr noundef nonnull @.str.9970, i32 noundef %5)
  br label %dissect_qos_capability.exit

10:                                               ; preds = %4
  %11 = load i32, ptr %3, align 8
  switch i32 %11, label %20 [
    i32 0, label %12
    i32 4, label %12
    i32 2, label %12
    i32 8, label %16
    i32 5, label %16
    i32 1, label %16
    i32 3, label %16
  ]

12:                                               ; preds = %10, %10, %10
  %13 = load i32, ptr @hf_ieee80211_ff_qos_info_sta, align 4
  %14 = load i32, ptr @ett_ff_qos_info, align 4
  %15 = tail call ptr @proto_tree_add_bitmask_with_flags(ptr noundef %2, ptr noundef %0, i32 noundef 0, i32 noundef %13, i32 noundef %14, ptr noundef nonnull @ieee80211_ff_qos_info_sta_fields, i32 noundef -2147483648, i32 noundef 1)
  br label %dissect_qos_capability.exit

16:                                               ; preds = %10, %10, %10, %10
  %17 = load i32, ptr @hf_ieee80211_ff_qos_info_ap, align 4
  %18 = load i32, ptr @ett_ff_qos_info, align 4
  %19 = tail call ptr @proto_tree_add_bitmask_with_flags(ptr noundef %2, ptr noundef %0, i32 noundef 0, i32 noundef %17, i32 noundef %18, ptr noundef nonnull @ieee80211_ff_qos_info_ap_fields, i32 noundef -2147483648, i32 noundef 1)
  br label %dissect_qos_capability.exit

20:                                               ; preds = %10
  %21 = tail call ptr @proto_tree_get_parent(ptr noundef %2)
  %22 = tail call ptr (ptr, ptr, ptr, ptr, ...) @expert_add_info_format(ptr noundef %1, ptr noundef %21, ptr noundef nonnull @ei_ieee80211_qos_info_bad_ftype, ptr noundef nonnull @.str.9966, i32 noundef %11)
  br label %dissect_qos_capability.exit

dissect_qos_capability.exit:                      ; preds = %20, %16, %12, %6
  %23 = tail call i32 @tvb_captured_length(ptr noundef %0)
  ret i32 %23
}